target datalayout = "e-m:e-p270:32:32-p271:32:32-p272:64:64-i64:64-i128:128-f80:128-n8:16:32:64-S128"
target triple = "x86_64-pc-linux-gnu"

%struct.PageHeaderData = type { %struct.PageXLogRecPtr, i16, i16, i16, i16, i16, i16, i32, [0 x %struct.ItemIdData] }
%struct.PageXLogRecPtr = type { i32, i32 }
%struct.ItemIdData = type { i32 }
%struct.BrinSpecialSpace = type { [4 x i16] }

@LocalBufferBlockPointers = external global ptr, align 8
@BufferBlocks = external global ptr, align 8

; Function Attrs: inlinehint nounwind uwtable
define internal ptr @BufferGetBlock(i32 noundef %0) #4 {
  %2 = alloca ptr, align 8
  %3 = alloca i32, align 4
  store i32 %0, ptr %3, align 4
  %4 = load i32, ptr %3, align 4
  %5 = icmp slt i32 %4, 0
  br i1 %5, label %6, label %14

6:                                                ; preds = %1
  %7 = load ptr, ptr @LocalBufferBlockPointers, align 8
  %8 = load i32, ptr %3, align 4
  %9 = sub i32 0, %8
  %10 = sub i32 %9, 1
  %11 = sext i32 %10 to i64
  %12 = getelementptr inbounds ptr, ptr %7, i64 %11
  %13 = load ptr, ptr %12, align 8
  store ptr %13, ptr %2, align 8
  br label %21

14:                                               ; preds = %1
  %15 = load ptr, ptr @BufferBlocks, align 8
  %16 = load i32, ptr %3, align 4
  %17 = sub i32 %16, 1
  %18 = sext i32 %17 to i64
  %19 = mul i64 %18, 8192
  %20 = getelementptr inbounds nuw i8, ptr %15, i64 %19
  store ptr %20, ptr %2, align 8
  br label %21

21:                                               ; preds = %14, %6
  %22 = load ptr, ptr %2, align 8
  ret ptr %22
}

; Function Attrs: nounwind uwtable
define internal i64 @br_page_get_freespace(ptr noundef %0) #0 {
  %2 = alloca i64, align 8
  %3 = alloca ptr, align 8
  store ptr %0, ptr %3, align 8
  %4 = load ptr, ptr %3, align 8
  call void @PageValidateSpecialPointer(ptr noundef %4)
  %5 = load ptr, ptr %3, align 8
  %6 = load ptr, ptr %3, align 8
  %7 = getelementptr inbounds nuw %struct.PageHeaderData, ptr %6, i32 0, i32 5
  %8 = load i16, ptr %7, align 4
  %9 = zext i16 %8 to i32
  %10 = sext i32 %9 to i64
  %11 = getelementptr inbounds i8, ptr %5, i64 %10
  %12 = getelementptr inbounds nuw %struct.BrinSpecialSpace, ptr %11, i32 0, i32 0
  %13 = getelementptr inbounds nuw [4 x i16], ptr %12, i64 0, i64 3
  %14 = load i16, ptr %13, align 2
  %15 = zext i16 %14 to i32
  %16 = icmp eq i32 %15, 61587
  br i1 %16, label %17, label %32

17:                                               ; preds = %1
  %18 = load ptr, ptr %3, align 8
  call void @PageValidateSpecialPointer(ptr noundef %18)
  %19 = load ptr, ptr %3, align 8
  %20 = load ptr, ptr %3, align 8
  %21 = getelementptr inbounds nuw %struct.PageHeaderData, ptr %20, i32 0, i32 5
  %22 = load i16, ptr %21, align 4
  %23 = zext i16 %22 to i32
  %24 = sext i32 %23 to i64
  %25 = getelementptr inbounds i8, ptr %19, i64 %24
  %26 = getelementptr inbounds nuw %struct.BrinSpecialSpace, ptr %25, i32 0, i32 0
  %27 = getelementptr inbounds nuw [4 x i16], ptr %26, i64 0, i64 2
  %28 = load i16, ptr %27, align 2
  %29 = zext i16 %28 to i32
  %30 = and i32 %29, 1
  %31 = icmp ne i32 %30, 0
  br i1 %31, label %32, label %33

32:                                               ; preds = %17, %1
  store i64 0, ptr %2, align 8
  br label %36

33:                                               ; preds = %17
  %34 = load ptr, ptr %3, align 8
  %35 = call i64 @PageGetFreeSpace(ptr noundef %34)
  store i64 %35, ptr %2, align 8
  br label %36

36:                                               ; preds = %33, %32
  %37 = load i64, ptr %2, align 8
  ret i64 %37
}

; Function Attrs: inlinehint nounwind uwtable
define internal void @PageValidateSpecialPointer(ptr noundef %0) #4 {
  %2 = alloca ptr, align 8
  store ptr %0, ptr %2, align 8
  ret void
}

; Function Attrs: inlinehint nounwind uwtable
define internal zeroext i1 @PageIsNew(ptr noundef %0) #4 {
  %2 = alloca ptr, align 8
  store ptr %0, ptr %2, align 8
  %3 = load ptr, ptr %2, align 8
  %4 = getelementptr inbounds nuw %struct.PageHeaderData, ptr %3, i32 0, i32 4
  %5 = load i16, ptr %4, align 2
  %6 = zext i16 %5 to i32
  %7 = icmp eq i32 %6, 0
  ret i1 %7
}

; Function Attrs: inlinehint nounwind uwtable
define internal ptr @BufferGetPage(i32 noundef %0) #4 {
  %2 = alloca i32, align 4
  store i32 %0, ptr %2, align 4
  %3 = load i32, ptr %2, align 4
  %4 = call ptr @BufferGetBlock(i32 noundef %3)
  ret ptr %4
}

; Function Attrs: nounwind uwtable
define dso_local void @brin_page_cleanup(ptr noundef %0, i32 noundef %1) #0 {
  %3 = alloca ptr, align 8
  %4 = alloca i32, align 4
  %5 = alloca ptr, align 8
  %6 = alloca i32, align 4
  store ptr %0, ptr %3, align 8
  store i32 %1, ptr %4, align 4
  call void @llvm.lifetime.start.p0(i64 8, ptr %5) #7
  %7 = load i32, ptr %4, align 4
  %8 = call ptr @BufferGetPage(i32 noundef %7)
  store ptr %8, ptr %5, align 8
  %9 = load ptr, ptr %5, align 8
  %10 = call zeroext i1 @PageIsNew(ptr noundef %9)
  br i1 %10, label %11, label %23

11:                                               ; preds = %2
  %12 = load ptr, ptr %3, align 8
  call void @LockRelationForExtension(ptr noundef %12, i32 noundef 5)
  %13 = load ptr, ptr %3, align 8
  call void @UnlockRelationForExtension(ptr noundef %13, i32 noundef 5)
  %14 = load i32, ptr %4, align 4
  call void @LockBuffer(i32 noundef %14, i32 noundef 2)
  %15 = load ptr, ptr %5, align 8
  %16 = call zeroext i1 @PageIsNew(ptr noundef %15)
  br i1 %16, label %17, label %21

17:                                               ; preds = %11
  %18 = load ptr, ptr %3, align 8
  %19 = load i32, ptr %4, align 4
  call void @brin_initialize_empty_new_buffer(ptr noundef %18, i32 noundef %19)
  %20 = load i32, ptr %4, align 4
  call void @LockBuffer(i32 noundef %20, i32 noundef 0)
  store i32 1, ptr %6, align 4
  br label %64

21:                                               ; preds = %11
  %22 = load i32, ptr %4, align 4
  call void @LockBuffer(i32 noundef %22, i32 noundef 0)
  br label %23

23:                                               ; preds = %21, %2
  %24 = load i32, ptr %4, align 4
  %25 = call ptr @BufferGetPage(i32 noundef %24)
  call void @PageValidateSpecialPointer(ptr noundef %25)
  %26 = load i32, ptr %4, align 4
  %27 = call ptr @BufferGetPage(i32 noundef %26)
  %28 = load i32, ptr %4, align 4
  %29 = call ptr @BufferGetPage(i32 noundef %28)
  %30 = getelementptr inbounds nuw %struct.PageHeaderData, ptr %29, i32 0, i32 5
  %31 = load i16, ptr %30, align 4
  %32 = zext i16 %31 to i32
  %33 = sext i32 %32 to i64
  %34 = getelementptr inbounds i8, ptr %27, i64 %33
  %35 = getelementptr inbounds nuw %struct.BrinSpecialSpace, ptr %34, i32 0, i32 0
  %36 = getelementptr inbounds nuw [4 x i16], ptr %35, i64 0, i64 3
  %37 = load i16, ptr %36, align 2
  %38 = zext i16 %37 to i32
  %39 = icmp eq i32 %38, 61585
  br i1 %39, label %57, label %40

40:                                               ; preds = %23
  %41 = load i32, ptr %4, align 4
  %42 = call ptr @BufferGetPage(i32 noundef %41)
  call void @PageValidateSpecialPointer(ptr noundef %42)
  %43 = load i32, ptr %4, align 4
  %44 = call ptr @BufferGetPage(i32 noundef %43)
  %45 = load i32, ptr %4, align 4
  %46 = call ptr @BufferGetPage(i32 noundef %45)
  %47 = getelementptr inbounds nuw %struct.PageHeaderData, ptr %46, i32 0, i32 5
  %48 = load i16, ptr %47, align 4
  %49 = zext i16 %48 to i32
  %50 = sext i32 %49 to i64
  %51 = getelementptr inbounds i8, ptr %44, i64 %50
  %52 = getelementptr inbounds nuw %struct.BrinSpecialSpace, ptr %51, i32 0, i32 0
  %53 = getelementptr inbounds nuw [4 x i16], ptr %52, i64 0, i64 3
  %54 = load i16, ptr %53, align 2
  %55 = zext i16 %54 to i32
  %56 = icmp eq i32 %55, 61586
  br i1 %56, label %57, label %58

57:                                               ; preds = %40, %23
  store i32 1, ptr %6, align 4
  br label %64

58:                                               ; preds = %40
  %59 = load ptr, ptr %3, align 8
  %60 = load i32, ptr %4, align 4
  %61 = call i32 @BufferGetBlockNumber(i32 noundef %60)
  %62 = load ptr, ptr %5, align 8
  %63 = call i64 @br_page_get_freespace(ptr noundef %62)
  call void @RecordPageWithFreeSpace(ptr noundef %59, i32 noundef %61, i64 noundef %63)
  store i32 0, ptr %6, align 4
  br label %64

64:                                               ; preds = %58, %57, %17
  call void @llvm.lifetime.end.p0(i64 8, ptr %5) #7
  %65 = load i32, ptr %6, align 4
  switch i32 %65, label %67 [
    i32 0, label %66
    i32 1, label %66
  ]

66:                                               ; preds = %64, %64
  ret void

67:                                               ; preds = %64
  unreachable
}