; Function Attrs: nounwind uwtable
define dso_local void @brin_page_cleanup(ptr noundef %0, i32 noundef %1) local_unnamed_addr #0 {
  %3 = icmp slt i32 %1, 0
  br i1 %3, label %4, label %10

4:                                                ; preds = %2
  %5 = load ptr, ptr @LocalBufferBlockPointers, align 8
  %6 = xor i32 %1, -1
  %7 = zext nneg i32 %6 to i64
  %8 = getelementptr inbounds nuw ptr, ptr %5, i64 %7
  %9 = load ptr, ptr %8, align 8
  br label %BufferGetPage.exit

10:                                               ; preds = %2
  %11 = load ptr, ptr @BufferBlocks, align 8
  %12 = add nsw i32 %1, -1
  %13 = sext i32 %12 to i64
  %14 = shl nsw i64 %13, 13
  %15 = getelementptr inbounds nuw i8, ptr %11, i64 %14
  br label %BufferGetPage.exit

BufferGetPage.exit:                               ; preds = %4, %10
  %.0.i.i = phi ptr [ %9, %4 ], [ %15, %10 ]
  %16 = getelementptr i8, ptr %.0.i.i, i64 14
  %.val18 = load i16, ptr %16, align 2
  %17 = icmp eq i16 %.val18, 0
  br i1 %17, label %18, label %22

18:                                               ; preds = %BufferGetPage.exit
  tail call void @LockRelationForExtension(ptr noundef %0, i32 noundef 5) #5
  tail call void @UnlockRelationForExtension(ptr noundef %0, i32 noundef 5) #5
  tail call void @LockBuffer(i32 noundef %1, i32 noundef 2) #5
  %.val = load i16, ptr %16, align 2
  %19 = icmp eq i16 %.val, 0
  br i1 %19, label %20, label %21

20:                                               ; preds = %18
  tail call fastcc void @brin_initialize_empty_new_buffer(ptr noundef %0, i32 noundef %1)
  tail call void @LockBuffer(i32 noundef %1, i32 noundef 0) #5
  br label %64

21:                                               ; preds = %18
  tail call void @LockBuffer(i32 noundef %1, i32 noundef 0) #5
  br label %22

22:                                               ; preds = %21, %BufferGetPage.exit
  br i1 %3, label %BufferGetPage.exit22, label %BufferGetPage.exit22.thread

BufferGetPage.exit22:                             ; preds = %22
  %23 = load ptr, ptr @LocalBufferBlockPointers, align 8
  %24 = xor i32 %1, -1
  %25 = zext nneg i32 %24 to i64
  %26 = getelementptr inbounds nuw ptr, ptr %23, i64 %25
  %27 = load ptr, ptr %26, align 8
  %28 = getelementptr inbounds nuw i8, ptr %27, i64 16
  %29 = load i16, ptr %28, align 4
  %30 = zext i16 %29 to i64
  %31 = getelementptr inbounds nuw i8, ptr %27, i64 %30
  %32 = getelementptr inbounds nuw i8, ptr %31, i64 6
  %33 = load i16, ptr %32, align 2
  %34 = icmp eq i16 %33, -3951
  br i1 %34, label %64, label %BufferGetPage.exit26

BufferGetPage.exit22.thread:                      ; preds = %22
  %35 = load ptr, ptr @BufferBlocks, align 8
  %36 = add nsw i32 %1, -1
  %37 = sext i32 %36 to i64
  %38 = shl nsw i64 %37, 13
  %39 = getelementptr inbounds nuw i8, ptr %35, i64 %38
  %40 = getelementptr inbounds nuw i8, ptr %39, i64 16
  %41 = load i16, ptr %40, align 4
  %42 = zext i16 %41 to i64
  %43 = getelementptr inbounds nuw i8, ptr %39, i64 %42
  %44 = getelementptr inbounds nuw i8, ptr %43, i64 6
  %45 = load i16, ptr %44, align 2
  %46 = icmp eq i16 %45, -3951
  br i1 %46, label %64, label %BufferGetPage.exit26

BufferGetPage.exit26:                             ; preds = %BufferGetPage.exit22.thread, %BufferGetPage.exit22
  %47 = phi i16 [ %33, %BufferGetPage.exit22 ], [ %45, %BufferGetPage.exit22.thread ]
  %48 = icmp eq i16 %47, -3950
  br i1 %48, label %64, label %49

49:                                               ; preds = %BufferGetPage.exit26
  %50 = tail call i32 @BufferGetBlockNumber(i32 noundef %1) #5
  %51 = getelementptr inbounds nuw i8, ptr %.0.i.i, i64 16
  %52 = load i16, ptr %51, align 4
  %53 = zext i16 %52 to i64
  %54 = getelementptr inbounds nuw i8, ptr %.0.i.i, i64 %53
  %55 = getelementptr inbounds nuw i8, ptr %54, i64 6
  %56 = load i16, ptr %55, align 2
  %57 = icmp eq i16 %56, -3949
  br i1 %57, label %58, label %br_page_get_freespace.exit

58:                                               ; preds = %49
  %59 = getelementptr inbounds nuw i8, ptr %54, i64 4
  %60 = load i16, ptr %59, align 2
  %61 = and i16 %60, 1
  %.not.i = icmp eq i16 %61, 0
  br i1 %.not.i, label %62, label %br_page_get_freespace.exit

62:                                               ; preds = %58
  %63 = tail call i64 @PageGetFreeSpace(ptr noundef nonnull %.0.i.i) #5
  br label %br_page_get_freespace.exit

br_page_get_freespace.exit:                       ; preds = %49, %58, %62
  %.0.i = phi i64 [ %63, %62 ], [ 0, %58 ], [ 0, %49 ]
  tail call void @RecordPageWithFreeSpace(ptr noundef %0, i32 noundef %50, i64 noundef %.0.i) #5
  br label %64

64:                                               ; preds = %BufferGetPage.exit22.thread, %BufferGetPage.exit22, %BufferGetPage.exit26, %br_page_get_freespace.exit, %20
  ret void
}